target datalayout = "e-m:e-p270:32:32-p271:32:32-p272:64:64-i64:64-i128:128-f80:128-n8:16:32:64-S128"
target triple = "x86_64-pc-linux-gnu"

%struct.DdManager = type { %struct.DdNode, ptr, ptr, ptr, ptr, ptr, ptr, ptr, i32, i32, double, double, double, i32, i32, i32, i32, i32, i32, ptr, ptr, %struct.DdSubtable, i32, i32, i32, i32, i32, i32, i32, double, i32, i32, i32, ptr, i64, double, i32, ptr, ptr, ptr, ptr, ptr, ptr, ptr, i32, ptr, ptr, ptr, ptr, ptr, ptr, i32, i32, i32, double, i32, i32, i32, i32, double, double, i32, i32, i32, i32, i32, i32, i32, i32, i32, ptr, ptr, i32, i32, i32, i32, i32, i32, ptr, ptr, ptr, ptr, ptr, ptr, ptr, ptr, i32, i64, i64, i64, i32, i64, i64, double, double, double, double, double, double, i32, ptr, ptr, i64 }
%struct.DdNode = type { i32, i32, ptr, %union.anon, i64 }
%union.anon = type { %struct.DdChildren }
%struct.DdChildren = type { ptr, ptr }
%struct.DdSubtable = type { ptr, i32, i32, i32, i32, i32, i32, i32, i32, i32, i32, i32 }

; Function Attrs: nounwind uwtable
define ptr @Cudd_addHamming(ptr noundef %0, ptr noundef %1, ptr noundef %2, i32 noundef %3) #0 {
  %5 = alloca ptr, align 8
  %6 = alloca ptr, align 8
  %7 = alloca ptr, align 8
  %8 = alloca ptr, align 8
  %9 = alloca i32, align 4
  %10 = alloca ptr, align 8
  %11 = alloca ptr, align 8
  %12 = alloca ptr, align 8
  %13 = alloca ptr, align 8
  %14 = alloca i32, align 4
  store ptr %0, ptr %6, align 8
  store ptr %1, ptr %7, align 8
  store ptr %2, ptr %8, align 8
  store i32 %3, ptr %9, align 4
  %15 = load ptr, ptr %6, align 8
  %16 = getelementptr inbounds %struct.DdManager, ptr %15, i32 0, i32 2
  %17 = load ptr, ptr %16, align 8
  store ptr %17, ptr %10, align 8
  %18 = load ptr, ptr %10, align 8
  %19 = ptrtoint ptr %18 to i64
  %20 = and i64 %19, -2
  %21 = inttoptr i64 %20 to ptr
  %22 = getelementptr inbounds %struct.DdNode, ptr %21, i32 0, i32 1
  %23 = load i32, ptr %22, align 4
  %24 = add i32 %23, 1
  store i32 %24, ptr %22, align 4
  store i32 0, ptr %14, align 4
  br label %25

25:                                               ; preds = %107, %4
  %26 = load i32, ptr %14, align 4
  %27 = load i32, ptr %9, align 4
  %28 = icmp slt i32 %26, %27
  br i1 %28, label %29, label %110

29:                                               ; preds = %25
  %30 = load ptr, ptr %6, align 8
  %31 = load ptr, ptr %7, align 8
  %32 = load i32, ptr %14, align 4
  %33 = sext i32 %32 to i64
  %34 = getelementptr inbounds ptr, ptr %31, i64 %33
  %35 = load ptr, ptr %34, align 8
  %36 = load ptr, ptr %8, align 8
  %37 = load i32, ptr %14, align 4
  %38 = sext i32 %37 to i64
  %39 = getelementptr inbounds ptr, ptr %36, i64 %38
  %40 = load ptr, ptr %39, align 8
  %41 = ptrtoint ptr %40 to i64
  %42 = xor i64 %41, 1
  %43 = inttoptr i64 %42 to ptr
  %44 = load ptr, ptr %8, align 8
  %45 = load i32, ptr %14, align 4
  %46 = sext i32 %45 to i64
  %47 = getelementptr inbounds ptr, ptr %44, i64 %46
  %48 = load ptr, ptr %47, align 8
  %49 = call ptr @Cudd_bddIte(ptr noundef %30, ptr noundef %35, ptr noundef %43, ptr noundef %48)
  store ptr %49, ptr %11, align 8
  %50 = load ptr, ptr %11, align 8
  %51 = icmp eq ptr %50, null
  br i1 %51, label %52, label %55

52:                                               ; preds = %29
  %53 = load ptr, ptr %6, align 8
  %54 = load ptr, ptr %10, align 8
  call void @Cudd_RecursiveDeref(ptr noundef %53, ptr noundef %54)
  store ptr null, ptr %5, align 8
  br label %119

55:                                               ; preds = %29
  %56 = load ptr, ptr %11, align 8
  %57 = ptrtoint ptr %56 to i64
  %58 = and i64 %57, -2
  %59 = inttoptr i64 %58 to ptr
  %60 = getelementptr inbounds %struct.DdNode, ptr %59, i32 0, i32 1
  %61 = load i32, ptr %60, align 4
  %62 = add i32 %61, 1
  store i32 %62, ptr %60, align 4
  %63 = load ptr, ptr %6, align 8
  %64 = load ptr, ptr %11, align 8
  %65 = call ptr @Cudd_BddToAdd(ptr noundef %63, ptr noundef %64)
  store ptr %65, ptr %12, align 8
  %66 = load ptr, ptr %12, align 8
  %67 = icmp eq ptr %66, null
  br i1 %67, label %68, label %73

68:                                               ; preds = %55
  %69 = load ptr, ptr %6, align 8
  %70 = load ptr, ptr %11, align 8
  call void @Cudd_RecursiveDeref(ptr noundef %69, ptr noundef %70)
  %71 = load ptr, ptr %6, align 8
  %72 = load ptr, ptr %10, align 8
  call void @Cudd_RecursiveDeref(ptr noundef %71, ptr noundef %72)
  store ptr null, ptr %5, align 8
  br label %119

73:                                               ; preds = %55
  %74 = load ptr, ptr %12, align 8
  %75 = ptrtoint ptr %74 to i64
  %76 = and i64 %75, -2
  %77 = inttoptr i64 %76 to ptr
  %78 = getelementptr inbounds %struct.DdNode, ptr %77, i32 0, i32 1
  %79 = load i32, ptr %78, align 4
  %80 = add i32 %79, 1
  store i32 %80, ptr %78, align 4
  %81 = load ptr, ptr %6, align 8
  %82 = load ptr, ptr %11, align 8
  call void @Cudd_RecursiveDeref(ptr noundef %81, ptr noundef %82)
  %83 = load ptr, ptr %6, align 8
  %84 = load ptr, ptr %12, align 8
  %85 = load ptr, ptr %10, align 8
  %86 = call ptr @Cudd_addApply(ptr noundef %83, ptr noundef @Cudd_addPlus, ptr noundef %84, ptr noundef %85)
  store ptr %86, ptr %13, align 8
  %87 = load ptr, ptr %13, align 8
  %88 = icmp eq ptr %87, null
  br i1 %88, label %89, label %94

89:                                               ; preds = %73
  %90 = load ptr, ptr %6, align 8
  %91 = load ptr, ptr %12, align 8
  call void @Cudd_RecursiveDeref(ptr noundef %90, ptr noundef %91)
  %92 = load ptr, ptr %6, align 8
  %93 = load ptr, ptr %10, align 8
  call void @Cudd_RecursiveDeref(ptr noundef %92, ptr noundef %93)
  store ptr null, ptr %5, align 8
  br label %119

94:                                               ; preds = %73
  %95 = load ptr, ptr %13, align 8
  %96 = ptrtoint ptr %95 to i64
  %97 = and i64 %96, -2
  %98 = inttoptr i64 %97 to ptr
  %99 = getelementptr inbounds %struct.DdNode, ptr %98, i32 0, i32 1
  %100 = load i32, ptr %99, align 4
  %101 = add i32 %100, 1
  store i32 %101, ptr %99, align 4
  %102 = load ptr, ptr %6, align 8
  %103 = load ptr, ptr %12, align 8
  call void @Cudd_RecursiveDeref(ptr noundef %102, ptr noundef %103)
  %104 = load ptr, ptr %6, align 8
  %105 = load ptr, ptr %10, align 8
  call void @Cudd_RecursiveDeref(ptr noundef %104, ptr noundef %105)
  %106 = load ptr, ptr %13, align 8
  store ptr %106, ptr %10, align 8
  br label %107

107:                                              ; preds = %94
  %108 = load i32, ptr %14, align 4
  %109 = add nsw i32 %108, 1
  store i32 %109, ptr %14, align 4
  br label %25, !llvm.loop !18

110:                                              ; preds = %25
  %111 = load ptr, ptr %10, align 8
  %112 = ptrtoint ptr %111 to i64
  %113 = and i64 %112, -2
  %114 = inttoptr i64 %113 to ptr
  %115 = getelementptr inbounds %struct.DdNode, ptr %114, i32 0, i32 1
  %116 = load i32, ptr %115, align 4
  %117 = add i32 %116, -1
  store i32 %117, ptr %115, align 4
  %118 = load ptr, ptr %10, align 8
  store ptr %118, ptr %5, align 8
  br label %119

119:                                              ; preds = %110, %89, %68, %52
  %120 = load ptr, ptr %5, align 8
  ret ptr %120
}