; Function Attrs: nounwind uwtable
define ptr @Cudd_addHamming(ptr noundef %0, ptr noundef readonly captures(none) %1, ptr noundef readonly captures(none) %2, i32 noundef %3) local_unnamed_addr #0 {
  %5 = getelementptr inbounds nuw i8, ptr %0, i64 48
  %6 = load ptr, ptr %5, align 8
  %7 = ptrtoint ptr %6 to i64
  %8 = and i64 %7, -2
  %9 = inttoptr i64 %8 to ptr
  %10 = getelementptr inbounds nuw i8, ptr %9, i64 4
  %11 = load i32, ptr %10, align 4
  %12 = add i32 %11, 1
  store i32 %12, ptr %10, align 4
  %13 = icmp sgt i32 %3, 0
  br i1 %13, label %.lr.ph.preheader, label %._crit_edge

.lr.ph.preheader:                                 ; preds = %4
  %wide.trip.count = zext nneg i32 %3 to i64
  br label %.lr.ph

.lr.ph:                                           ; preds = %.lr.ph.preheader, %44
  %indvars.iv = phi i64 [ 0, %.lr.ph.preheader ], [ %indvars.iv.next, %44 ]
  %.04354 = phi ptr [ %6, %.lr.ph.preheader ], [ %41, %44 ]
  %14 = getelementptr inbounds nuw ptr, ptr %1, i64 %indvars.iv
  %15 = load ptr, ptr %14, align 8
  %16 = getelementptr inbounds nuw ptr, ptr %2, i64 %indvars.iv
  %17 = load ptr, ptr %16, align 8
  %18 = ptrtoint ptr %17 to i64
  %19 = xor i64 %18, 1
  %20 = inttoptr i64 %19 to ptr
  %21 = tail call ptr @Cudd_bddIte(ptr noundef %0, ptr noundef %15, ptr noundef %20, ptr noundef %17) #6
  %22 = icmp eq ptr %21, null
  br i1 %22, label %23, label %24

23:                                               ; preds = %.lr.ph
  tail call void @Cudd_RecursiveDeref(ptr noundef %0, ptr noundef %.04354) #6
  br label %54

24:                                               ; preds = %.lr.ph
  %25 = ptrtoint ptr %21 to i64
  %26 = and i64 %25, -2
  %27 = inttoptr i64 %26 to ptr
  %28 = getelementptr inbounds nuw i8, ptr %27, i64 4
  %29 = load i32, ptr %28, align 4
  %30 = add i32 %29, 1
  store i32 %30, ptr %28, align 4
  %31 = tail call ptr @Cudd_BddToAdd(ptr noundef %0, ptr noundef nonnull %21) #6
  %32 = icmp eq ptr %31, null
  br i1 %32, label %33, label %34

33:                                               ; preds = %24
  tail call void @Cudd_RecursiveDeref(ptr noundef %0, ptr noundef nonnull %21) #6
  tail call void @Cudd_RecursiveDeref(ptr noundef %0, ptr noundef %.04354) #6
  br label %54

34:                                               ; preds = %24
  %35 = ptrtoint ptr %31 to i64
  %36 = and i64 %35, -2
  %37 = inttoptr i64 %36 to ptr
  %38 = getelementptr inbounds nuw i8, ptr %37, i64 4
  %39 = load i32, ptr %38, align 4
  %40 = add i32 %39, 1
  store i32 %40, ptr %38, align 4
  tail call void @Cudd_RecursiveDeref(ptr noundef %0, ptr noundef nonnull %21) #6
  %41 = tail call ptr @Cudd_addApply(ptr noundef %0, ptr noundef nonnull @Cudd_addPlus, ptr noundef nonnull %31, ptr noundef %.04354) #6
  %42 = icmp eq ptr %41, null
  br i1 %42, label %43, label %44

43:                                               ; preds = %34
  tail call void @Cudd_RecursiveDeref(ptr noundef %0, ptr noundef nonnull %31) #6
  tail call void @Cudd_RecursiveDeref(ptr noundef %0, ptr noundef %.04354) #6
  br label %54

44:                                               ; preds = %34
  %45 = ptrtoint ptr %41 to i64
  %46 = and i64 %45, -2
  %47 = inttoptr i64 %46 to ptr
  %48 = getelementptr inbounds nuw i8, ptr %47, i64 4
  %49 = load i32, ptr %48, align 4
  %50 = add i32 %49, 1
  store i32 %50, ptr %48, align 4
  tail call void @Cudd_RecursiveDeref(ptr noundef %0, ptr noundef nonnull %31) #6
  tail call void @Cudd_RecursiveDeref(ptr noundef %0, ptr noundef %.04354) #6
  %indvars.iv.next = add nuw nsw i64 %indvars.iv, 1
  %exitcond.not = icmp eq i64 %indvars.iv.next, %wide.trip.count
  br i1 %exitcond.not, label %._crit_edge, label %.lr.ph, !llvm.loop !18

._crit_edge:                                      ; preds = %44, %4
  %.pre-phi69 = phi ptr [ %9, %4 ], [ %47, %44 ]
  %.043.lcssa = phi ptr [ %6, %4 ], [ %41, %44 ]
  %51 = getelementptr inbounds nuw i8, ptr %.pre-phi69, i64 4
  %52 = load i32, ptr %51, align 4
  %53 = add i32 %52, -1
  store i32 %53, ptr %51, align 4
  br label %54

54:                                               ; preds = %._crit_edge, %43, %33, %23
  %.042 = phi ptr [ null, %23 ], [ null, %33 ], [ null, %43 ], [ %.043.lcssa, %._crit_edge ]
  ret ptr %.042
}